#include <math.h>
#include <stdio.h>
#include <stdlib.h>
#include <string.h>

int main()
{
	int col,row,i,j,*org,*p,m,n,count=0,total;
	scanf("%d %d",&row,&col);
	org=(int*)malloc(row*col*sizeof(int));
	p=org;
	for(i=0;i<row;i++)
		for(j=0;j<col;j++)
		{
			scanf("%d",p+i*col+j);
		}
		total=row*col;
		i=0;j=0;
   
	do	
	{
		m=i;n=j;
		for(;n<col-j;n++)
		{printf("%d\n",*(p+m*col+n));count++;}
		n--;
		if(count==total)break;
		for(m=i+1;m<row-i;m++)
		{printf("%d\n",*(p+m*col+n));count++;}
		m--;
		if(count==total)break;
		for(n=n-1;n>=j;n--)
		{printf("%d\n",*(p+m*col+n));count++;}
		n++;
		if(count==total)break;
		for(m=m-1;m>=i+1;m--)
		{printf("%d\n",*(p+m*col+n));count++;}
		m++;
		if(count==total)break;
		j++;i++;
	}while(1);
		
	free(org);
}
