; ModuleID = '46/1434.c'
source_filename = "46/1434.c"
target datalayout = "e-m:e-p270:32:32-p271:32:32-p272:64:64-i64:64-f80:128-n8:16:32:64-S128"
target triple = "x86_64-pc-linux-gnu"

@.str = private unnamed_addr constant [6 x i8] c"%d %d\00", align 1
@.str.1 = private unnamed_addr constant [3 x i8] c"%d\00", align 1
@.str.2 = private unnamed_addr constant [4 x i8] c"%d\0A\00", align 1

; Function Attrs: noinline nounwind uwtable
define dso_local i32 @main() #0 {
  %1 = alloca i32, align 4
  %2 = alloca i32, align 4
  %3 = alloca i32, align 4
  %4 = alloca i32, align 4
  %5 = alloca i32, align 4
  %6 = alloca i32*, align 8
  %7 = alloca i32*, align 8
  %8 = alloca i32, align 4
  %9 = alloca i32, align 4
  %10 = alloca i32, align 4
  %11 = alloca i32, align 4
  store i32 0, i32* %1, align 4
  store i32 0, i32* %10, align 4
  %12 = call i32 (i8*, ...) @__isoc99_scanf(i8* getelementptr inbounds ([6 x i8], [6 x i8]* @.str, i64 0, i64 0), i32* %3, i32* %2)
  %13 = load i32, i32* %3, align 4
  %14 = load i32, i32* %2, align 4
  %15 = mul nsw i32 %13, %14
  %16 = sext i32 %15 to i64
  %17 = mul i64 %16, 4
  %18 = call noalias i8* @malloc(i64 %17) #3
  %19 = bitcast i8* %18 to i32*
  store i32* %19, i32** %6, align 8
  %20 = load i32*, i32** %6, align 8
  store i32* %20, i32** %7, align 8
  store i32 0, i32* %4, align 4
  br label %21

21:                                               ; preds = %45, %0
  %22 = load i32, i32* %4, align 4
  %23 = load i32, i32* %3, align 4
  %24 = icmp slt i32 %22, %23
  br i1 %24, label %25, label %48

25:                                               ; preds = %21
  store i32 0, i32* %5, align 4
  br label %26

26:                                               ; preds = %41, %25
  %27 = load i32, i32* %5, align 4
  %28 = load i32, i32* %2, align 4
  %29 = icmp slt i32 %27, %28
  br i1 %29, label %30, label %44

30:                                               ; preds = %26
  %31 = load i32*, i32** %7, align 8
  %32 = load i32, i32* %4, align 4
  %33 = load i32, i32* %2, align 4
  %34 = mul nsw i32 %32, %33
  %35 = sext i32 %34 to i64
  %36 = getelementptr inbounds i32, i32* %31, i64 %35
  %37 = load i32, i32* %5, align 4
  %38 = sext i32 %37 to i64
  %39 = getelementptr inbounds i32, i32* %36, i64 %38
  %40 = call i32 (i8*, ...) @__isoc99_scanf(i8* getelementptr inbounds ([3 x i8], [3 x i8]* @.str.1, i64 0, i64 0), i32* %39)
  br label %41

41:                                               ; preds = %30
  %42 = load i32, i32* %5, align 4
  %43 = add nsw i32 %42, 1
  store i32 %43, i32* %5, align 4
  br label %26

44:                                               ; preds = %26
  br label %45

45:                                               ; preds = %44
  %46 = load i32, i32* %4, align 4
  %47 = add nsw i32 %46, 1
  store i32 %47, i32* %4, align 4
  br label %21

48:                                               ; preds = %21
  %49 = load i32, i32* %3, align 4
  %50 = load i32, i32* %2, align 4
  %51 = mul nsw i32 %49, %50
  store i32 %51, i32* %11, align 4
  store i32 0, i32* %4, align 4
  store i32 0, i32* %5, align 4
  br label %52

52:                                               ; preds = %186, %48
  %53 = load i32, i32* %4, align 4
  store i32 %53, i32* %8, align 4
  %54 = load i32, i32* %5, align 4
  store i32 %54, i32* %9, align 4
  br label %55

55:                                               ; preds = %75, %52
  %56 = load i32, i32* %9, align 4
  %57 = load i32, i32* %2, align 4
  %58 = load i32, i32* %5, align 4
  %59 = sub nsw i32 %57, %58
  %60 = icmp slt i32 %56, %59
  br i1 %60, label %61, label %78

61:                                               ; preds = %55
  %62 = load i32*, i32** %7, align 8
  %63 = load i32, i32* %8, align 4
  %64 = load i32, i32* %2, align 4
  %65 = mul nsw i32 %63, %64
  %66 = sext i32 %65 to i64
  %67 = getelementptr inbounds i32, i32* %62, i64 %66
  %68 = load i32, i32* %9, align 4
  %69 = sext i32 %68 to i64
  %70 = getelementptr inbounds i32, i32* %67, i64 %69
  %71 = load i32, i32* %70, align 4
  %72 = call i32 (i8*, ...) @printf(i8* getelementptr inbounds ([4 x i8], [4 x i8]* @.str.2, i64 0, i64 0), i32 %71)
  %73 = load i32, i32* %10, align 4
  %74 = add nsw i32 %73, 1
  store i32 %74, i32* %10, align 4
  br label %75

75:                                               ; preds = %61
  %76 = load i32, i32* %9, align 4
  %77 = add nsw i32 %76, 1
  store i32 %77, i32* %9, align 4
  br label %55

78:                                               ; preds = %55
  %79 = load i32, i32* %9, align 4
  %80 = add nsw i32 %79, -1
  store i32 %80, i32* %9, align 4
  %81 = load i32, i32* %10, align 4
  %82 = load i32, i32* %11, align 4
  %83 = icmp eq i32 %81, %82
  br i1 %83, label %84, label %85

84:                                               ; preds = %78
  br label %187

85:                                               ; preds = %78
  %86 = load i32, i32* %4, align 4
  %87 = add nsw i32 %86, 1
  store i32 %87, i32* %8, align 4
  br label %88

88:                                               ; preds = %108, %85
  %89 = load i32, i32* %8, align 4
  %90 = load i32, i32* %3, align 4
  %91 = load i32, i32* %4, align 4
  %92 = sub nsw i32 %90, %91
  %93 = icmp slt i32 %89, %92
  br i1 %93, label %94, label %111

94:                                               ; preds = %88
  %95 = load i32*, i32** %7, align 8
  %96 = load i32, i32* %8, align 4
  %97 = load i32, i32* %2, align 4
  %98 = mul nsw i32 %96, %97
  %99 = sext i32 %98 to i64
  %100 = getelementptr inbounds i32, i32* %95, i64 %99
  %101 = load i32, i32* %9, align 4
  %102 = sext i32 %101 to i64
  %103 = getelementptr inbounds i32, i32* %100, i64 %102
  %104 = load i32, i32* %103, align 4
  %105 = call i32 (i8*, ...) @printf(i8* getelementptr inbounds ([4 x i8], [4 x i8]* @.str.2, i64 0, i64 0), i32 %104)
  %106 = load i32, i32* %10, align 4
  %107 = add nsw i32 %106, 1
  store i32 %107, i32* %10, align 4
  br label %108

108:                                              ; preds = %94
  %109 = load i32, i32* %8, align 4
  %110 = add nsw i32 %109, 1
  store i32 %110, i32* %8, align 4
  br label %88

111:                                              ; preds = %88
  %112 = load i32, i32* %8, align 4
  %113 = add nsw i32 %112, -1
  store i32 %113, i32* %8, align 4
  %114 = load i32, i32* %10, align 4
  %115 = load i32, i32* %11, align 4
  %116 = icmp eq i32 %114, %115
  br i1 %116, label %117, label %118

117:                                              ; preds = %111
  br label %187

118:                                              ; preds = %111
  %119 = load i32, i32* %9, align 4
  %120 = sub nsw i32 %119, 1
  store i32 %120, i32* %9, align 4
  br label %121

121:                                              ; preds = %139, %118
  %122 = load i32, i32* %9, align 4
  %123 = load i32, i32* %5, align 4
  %124 = icmp sge i32 %122, %123
  br i1 %124, label %125, label %142

125:                                              ; preds = %121
  %126 = load i32*, i32** %7, align 8
  %127 = load i32, i32* %8, align 4
  %128 = load i32, i32* %2, align 4
  %129 = mul nsw i32 %127, %128
  %130 = sext i32 %129 to i64
  %131 = getelementptr inbounds i32, i32* %126, i64 %130
  %132 = load i32, i32* %9, align 4
  %133 = sext i32 %132 to i64
  %134 = getelementptr inbounds i32, i32* %131, i64 %133
  %135 = load i32, i32* %134, align 4
  %136 = call i32 (i8*, ...) @printf(i8* getelementptr inbounds ([4 x i8], [4 x i8]* @.str.2, i64 0, i64 0), i32 %135)
  %137 = load i32, i32* %10, align 4
  %138 = add nsw i32 %137, 1
  store i32 %138, i32* %10, align 4
  br label %139

139:                                              ; preds = %125
  %140 = load i32, i32* %9, align 4
  %141 = add nsw i32 %140, -1
  store i32 %141, i32* %9, align 4
  br label %121

142:                                              ; preds = %121
  %143 = load i32, i32* %9, align 4
  %144 = add nsw i32 %143, 1
  store i32 %144, i32* %9, align 4
  %145 = load i32, i32* %10, align 4
  %146 = load i32, i32* %11, align 4
  %147 = icmp eq i32 %145, %146
  br i1 %147, label %148, label %149

148:                                              ; preds = %142
  br label %187

149:                                              ; preds = %142
  %150 = load i32, i32* %8, align 4
  %151 = sub nsw i32 %150, 1
  store i32 %151, i32* %8, align 4
  br label %152

152:                                              ; preds = %171, %149
  %153 = load i32, i32* %8, align 4
  %154 = load i32, i32* %4, align 4
  %155 = add nsw i32 %154, 1
  %156 = icmp sge i32 %153, %155
  br i1 %156, label %157, label %174

157:                                              ; preds = %152
  %158 = load i32*, i32** %7, align 8
  %159 = load i32, i32* %8, align 4
  %160 = load i32, i32* %2, align 4
  %161 = mul nsw i32 %159, %160
  %162 = sext i32 %161 to i64
  %163 = getelementptr inbounds i32, i32* %158, i64 %162
  %164 = load i32, i32* %9, align 4
  %165 = sext i32 %164 to i64
  %166 = getelementptr inbounds i32, i32* %163, i64 %165
  %167 = load i32, i32* %166, align 4
  %168 = call i32 (i8*, ...) @printf(i8* getelementptr inbounds ([4 x i8], [4 x i8]* @.str.2, i64 0, i64 0), i32 %167)
  %169 = load i32, i32* %10, align 4
  %170 = add nsw i32 %169, 1
  store i32 %170, i32* %10, align 4
  br label %171

171:                                              ; preds = %157
  %172 = load i32, i32* %8, align 4
  %173 = add nsw i32 %172, -1
  store i32 %173, i32* %8, align 4
  br label %152

174:                                              ; preds = %152
  %175 = load i32, i32* %8, align 4
  %176 = add nsw i32 %175, 1
  store i32 %176, i32* %8, align 4
  %177 = load i32, i32* %10, align 4
  %178 = load i32, i32* %11, align 4
  %179 = icmp eq i32 %177, %178
  br i1 %179, label %180, label %181

180:                                              ; preds = %174
  br label %187

181:                                              ; preds = %174
  %182 = load i32, i32* %5, align 4
  %183 = add nsw i32 %182, 1
  store i32 %183, i32* %5, align 4
  %184 = load i32, i32* %4, align 4
  %185 = add nsw i32 %184, 1
  store i32 %185, i32* %4, align 4
  br label %186

186:                                              ; preds = %181
  br i1 true, label %52, label %187

187:                                              ; preds = %186, %180, %148, %117, %84
  %188 = load i32*, i32** %6, align 8
  %189 = bitcast i32* %188 to i8*
  call void @free(i8* %189) #3
  %190 = load i32, i32* %1, align 4
  ret i32 %190
}

declare dso_local i32 @__isoc99_scanf(i8*, ...) #1

; Function Attrs: nounwind
declare dso_local noalias i8* @malloc(i64) #2

declare dso_local i32 @printf(i8*, ...) #1

; Function Attrs: nounwind
declare dso_local void @free(i8*) #2


!llvm.module.flags = !{!0}
!llvm.ident = !{!1}

!0 = !{i32 1, !"wchar_size", i32 4}
!1 = !{!"clang version 10.0.0-4ubuntu1 "}
